; Function Attrs: nofree norecurse nosync nounwind memory(readwrite, inaccessiblemem: none) uwtable
define void @stbhw__draw_hline(ptr noundef writeonly captures(none) %0, i32 noundef %1, i32 noundef %2, i32 noundef %3, i32 noundef %4, i32 noundef %5, i32 noundef %6) local_unnamed_addr #13 {
  %8 = alloca [3 x i8], align 1
  %9 = mul nsw i32 %5, 6
  %10 = sdiv i32 %9, 16
  %11 = mul nsw i32 %5, 10
  %12 = sdiv i32 %11, 16
  %13 = icmp sgt i32 %5, 0
  br i1 %13, label %.lr.ph, label %._crit_edge

.lr.ph:                                           ; preds = %7
  %14 = mul nsw i32 %3, %1
  %15 = sext i32 %14 to i64
  %16 = getelementptr inbounds i8, ptr %0, i64 %15
  %17 = sext i32 %2 to i64
  %wide.trip.count = zext nneg i32 %5 to i64
  br label %18

18:                                               ; preds = %.lr.ph, %18
  %indvars.iv = phi i64 [ 0, %.lr.ph ], [ %indvars.iv.next, %18 ]
  %19 = add nsw i64 %indvars.iv, %17
  %20 = mul nsw i64 %19, 3
  %21 = getelementptr inbounds i8, ptr %16, i64 %20
  tail call void @llvm.memcpy.p0.p0.i64(ptr noundef nonnull align 1 dereferenceable(3) %21, ptr noundef nonnull align 1 dereferenceable(3) @stbhw__black, i64 3, i1 false)
  %indvars.iv.next = add nuw nsw i64 %indvars.iv, 1
  %exitcond.not = icmp eq i64 %indvars.iv.next, %wide.trip.count
  br i1 %exitcond.not, label %._crit_edge, label %18, !llvm.loop !103

._crit_edge:                                      ; preds = %18, %7
  %22 = sub nsw i32 %12, %10
  %23 = icmp slt i32 %22, 2
  br i1 %23, label %24, label %28

24:                                               ; preds = %._crit_edge
  %25 = sdiv i32 %5, 2
  %26 = add nsw i32 %25, -1
  %27 = and i32 %5, 1
  %spec.select.v = add nuw nsw i32 %27, 1
  %spec.select = add nsw i32 %spec.select.v, %25
  br label %28

28:                                               ; preds = %24, %._crit_edge
  %.026 = phi i32 [ %10, %._crit_edge ], [ %26, %24 ]
  %.0 = phi i32 [ %12, %._crit_edge ], [ %spec.select, %24 ]
  %29 = icmp slt i32 %.026, %.0
  br i1 %29, label %.lr.ph32, label %._crit_edge33

.lr.ph32:                                         ; preds = %28
  %30 = sext i32 %6 to i64
  %31 = sext i32 %4 to i64
  %32 = getelementptr inbounds [7 x [8 x [3 x i8]]], ptr @stbhw__color, i64 0, i64 %30, i64 %31
  %33 = mul nsw i32 %3, %1
  %34 = sext i32 %33 to i64
  %35 = getelementptr inbounds i8, ptr %0, i64 %34
  %36 = sext i32 %.026 to i64
  %37 = sext i32 %2 to i64
  %wide.trip.count38 = sext i32 %.0 to i64
  br label %38

38:                                               ; preds = %.lr.ph32, %stbhw__stbhw__set_pixel_whiten.exit
  %indvars.iv35 = phi i64 [ %36, %.lr.ph32 ], [ %indvars.iv.next36, %stbhw__stbhw__set_pixel_whiten.exit ]
  call void @llvm.lifetime.start.p0(i64 3, ptr nonnull %8) #15
  br label %39

39:                                               ; preds = %39, %38
  %indvars.iv.i = phi i64 [ 0, %38 ], [ %indvars.iv.next.i, %39 ]
  %40 = getelementptr inbounds nuw i8, ptr %32, i64 %indvars.iv.i
  %41 = load i8, ptr %40, align 1, !tbaa !58
  %42 = zext i8 %41 to i16
  %43 = shl nuw nsw i16 %42, 1
  %44 = add nuw nsw i16 %43, 255
  %45 = udiv i16 %44, 3
  %46 = trunc nuw i16 %45 to i8
  %47 = getelementptr inbounds nuw [3 x i8], ptr %8, i64 0, i64 %indvars.iv.i
  store i8 %46, ptr %47, align 1, !tbaa !58
  %indvars.iv.next.i = add nuw nsw i64 %indvars.iv.i, 1
  %exitcond.not.i = icmp eq i64 %indvars.iv.next.i, 3
  br i1 %exitcond.not.i, label %stbhw__stbhw__set_pixel_whiten.exit, label %39, !llvm.loop !102

stbhw__stbhw__set_pixel_whiten.exit:              ; preds = %39
  %48 = add nsw i64 %indvars.iv35, %37
  %49 = mul nsw i64 %48, 3
  %50 = getelementptr inbounds i8, ptr %35, i64 %49
  call void @llvm.memcpy.p0.p0.i64(ptr noundef nonnull align 1 dereferenceable(3) %50, ptr noundef nonnull align 1 dereferenceable(3) %8, i64 3, i1 false)
  call void @llvm.lifetime.end.p0(i64 3, ptr nonnull %8) #15
  %indvars.iv.next36 = add nsw i64 %indvars.iv35, 1
  %exitcond39.not = icmp eq i64 %indvars.iv.next36, %wide.trip.count38
  br i1 %exitcond39.not, label %._crit_edge33, label %38, !llvm.loop !104

._crit_edge33:                                    ; preds = %stbhw__stbhw__set_pixel_whiten.exit, %28
  ret void
}